
build/kernel.elf:     file format elf32-littlearm


Disassembly of section .text:

00008000 <vector>:
    8000:	e59ff018 	ldr	pc, [pc, #24]	; 8020 <reset_handler>
    8004:	e59ff018 	ldr	pc, [pc, #24]	; 8024 <undefined_handler>
    8008:	e59ff018 	ldr	pc, [pc, #24]	; 8028 <swi_handler>
    800c:	e59ff018 	ldr	pc, [pc, #24]	; 802c <prefetch_handler>
    8010:	e59ff018 	ldr	pc, [pc, #24]	; 8030 <data_handler>
    8014:	e59ff018 	ldr	pc, [pc, #24]	; 8034 <unused_handler>
    8018:	e59ff018 	ldr	pc, [pc, #24]	; 8038 <irq_handler>
    801c:	e59ff018 	ldr	pc, [pc, #24]	; 803c <fiq_handler>

00008020 <reset_handler>:
    8020:	00008040 	.word	0x00008040

00008024 <undefined_handler>:
    8024:	000080b8 	.word	0x000080b8

00008028 <swi_handler>:
    8028:	00008468 	.word	0x00008468

0000802c <prefetch_handler>:
    802c:	000080b8 	.word	0x000080b8

00008030 <data_handler>:
    8030:	000080c0 	.word	0x000080c0

00008034 <unused_handler>:
    8034:	000080b8 	.word	0x000080b8

00008038 <irq_handler>:
    8038:	000080b4 	.word	0x000080b4

0000803c <fiq_handler>:
    803c:	000080b8 	.word	0x000080b8

00008040 <_start>:
    8040:	ee101fb0 	mrc	15, 0, r1, cr0, cr0, {5}
    8044:	e2011003 	and	r1, r1, #3
    8048:	e3510000 	cmp	r1, #0
    804c:	1a000019 	bne	80b8 <hang>
    8050:	e59f006c 	ldr	r0, [pc, #108]	; 80c4 <asm_data_handler+0x4>
    8054:	ee0c0f10 	mcr	15, 0, r0, cr12, cr0, {0}
    8058:	e10f0000 	mrs	r0, CPSR
    805c:	e3c0101f 	bic	r1, r0, #31
    8060:	e3811012 	orr	r1, r1, #18
    8064:	e121f001 	msr	CPSR_c, r1
    8068:	e59fd058 	ldr	sp, [pc, #88]	; 80c8 <asm_data_handler+0x8>
    806c:	e3c0101f 	bic	r1, r0, #31
    8070:	e3811017 	orr	r1, r1, #23
    8074:	e121f001 	msr	CPSR_c, r1
    8078:	e59fd048 	ldr	sp, [pc, #72]	; 80c8 <asm_data_handler+0x8>
    807c:	e3c0101f 	bic	r1, r0, #31
    8080:	e3811013 	orr	r1, r1, #19
    8084:	e121f001 	msr	CPSR_c, r1
    8088:	e59fd03c 	ldr	sp, [pc, #60]	; 80cc <asm_data_handler+0xc>
    808c:	e3c0101f 	bic	r1, r0, #31
    8090:	e381101f 	orr	r1, r1, #31
    8094:	e121f001 	msr	CPSR_c, r1
    8098:	e59fd030 	ldr	sp, [pc, #48]	; 80d0 <asm_data_handler+0x10>
    809c:	e59f3030 	ldr	r3, [pc, #48]	; 80d4 <asm_data_handler+0x14>
    80a0:	e12fff33 	blx	r3

000080a4 <loop_after_kmain>:
    80a4:	eafffffe 	b	80a4 <loop_after_kmain>

000080a8 <io_halt>:
    80a8:	e320f003 	wfi
    80ac:	e12fff1e 	bx	lr

000080b0 <asm_wsi_handler>:
    80b0:	eafffffe 	b	80b0 <asm_wsi_handler>

000080b4 <asm_irq_handler>:
    80b4:	eafffffe 	b	80b4 <asm_irq_handler>

000080b8 <hang>:
    80b8:	e320f003 	wfi
    80bc:	eafffffd 	b	80b8 <hang>

000080c0 <asm_data_handler>:
    80c0:	eafffffe 	b	80c0 <asm_data_handler>
    80c4:	00008000 	.word	0x00008000
    80c8:	00009d5c 	.word	0x00009d5c
    80cc:	0000995c 	.word	0x0000995c
    80d0:	00009b5c 	.word	0x00009b5c
    80d4:	000095e0 	.word	0x000095e0

000080d8 <aligned_value>:
    80d8:	e24dd010 	sub	sp, sp, #16
    80dc:	e58d0004 	str	r0, [sp, #4]
    80e0:	e58d1000 	str	r1, [sp]
    80e4:	e3a02001 	mov	r2, #1
    80e8:	e59d3000 	ldr	r3, [sp]
    80ec:	e1a03312 	lsl	r3, r2, r3
    80f0:	e58d300c 	str	r3, [sp, #12]
    80f4:	e59d300c 	ldr	r3, [sp, #12]
    80f8:	e2433001 	sub	r3, r3, #1
    80fc:	e58d3008 	str	r3, [sp, #8]
    8100:	e59d2004 	ldr	r2, [sp, #4]
    8104:	e59d3008 	ldr	r3, [sp, #8]
    8108:	e0822003 	add	r2, r2, r3
    810c:	e59d3008 	ldr	r3, [sp, #8]
    8110:	e1e03003 	mvn	r3, r3
    8114:	e0033002 	and	r3, r3, r2
    8118:	e1a00003 	mov	r0, r3
    811c:	e28dd010 	add	sp, sp, #16
    8120:	e12fff1e 	bx	lr

00008124 <kAlloc_aligned>:
    8124:	e92d4030 	push	{r4, r5, lr}
    8128:	e24dd01c 	sub	sp, sp, #28
    812c:	e58d0004 	str	r0, [sp, #4]
    8130:	e58d1000 	str	r1, [sp]
    8134:	e3093650 	movw	r3, #38480	; 0x9650
    8138:	e3403000 	movt	r3, #0
    813c:	e5934000 	ldr	r4, [r3]
    8140:	e1a03004 	mov	r3, r4
    8144:	e59d1000 	ldr	r1, [sp]
    8148:	e1a00003 	mov	r0, r3
    814c:	ebffffe1 	bl	80d8 <aligned_value>
    8150:	e58d0014 	str	r0, [sp, #20]
    8154:	e3a01002 	mov	r1, #2
    8158:	e59d0004 	ldr	r0, [sp, #4]
    815c:	ebffffdd 	bl	80d8 <aligned_value>
    8160:	e58d000c 	str	r0, [sp, #12]
    8164:	e3095650 	movw	r5, #38480	; 0x9650
    8168:	e3405000 	movt	r5, #0
    816c:	ea000006 	b	818c <kAlloc_aligned+0x68>
    8170:	e1a05004 	mov	r5, r4
    8174:	e5944000 	ldr	r4, [r4]
    8178:	e1a03004 	mov	r3, r4
    817c:	e59d1000 	ldr	r1, [sp]
    8180:	e1a00003 	mov	r0, r3
    8184:	ebffffd3 	bl	80d8 <aligned_value>
    8188:	e58d0014 	str	r0, [sp, #20]
    818c:	e3540000 	cmp	r4, #0
    8190:	0a000007 	beq	81b4 <kAlloc_aligned+0x90>
    8194:	e1a02004 	mov	r2, r4
    8198:	e59d3014 	ldr	r3, [sp, #20]
    819c:	e1530002 	cmp	r3, r2
    81a0:	1afffff2 	bne	8170 <kAlloc_aligned+0x4c>
    81a4:	e5943004 	ldr	r3, [r4, #4]
    81a8:	e59d200c 	ldr	r2, [sp, #12]
    81ac:	e1520003 	cmp	r2, r3
    81b0:	1affffee 	bne	8170 <kAlloc_aligned+0x4c>
    81b4:	e3540000 	cmp	r4, #0
    81b8:	1a00002b 	bne	826c <kAlloc_aligned+0x148>
    81bc:	e3093660 	movw	r3, #38496	; 0x9660
    81c0:	e3403000 	movt	r3, #0
    81c4:	e5934000 	ldr	r4, [r3]
    81c8:	e1a03004 	mov	r3, r4
    81cc:	e59d1000 	ldr	r1, [sp]
    81d0:	e1a00003 	mov	r0, r3
    81d4:	ebffffbf 	bl	80d8 <aligned_value>
    81d8:	e58d0014 	str	r0, [sp, #20]
    81dc:	e1a02004 	mov	r2, r4
    81e0:	e59d3014 	ldr	r3, [sp, #20]
    81e4:	e1530002 	cmp	r3, r2
    81e8:	1a000008 	bne	8210 <kAlloc_aligned+0xec>
    81ec:	e3093660 	movw	r3, #38496	; 0x9660
    81f0:	e3403000 	movt	r3, #0
    81f4:	e5932000 	ldr	r2, [r3]
    81f8:	e59d300c 	ldr	r3, [sp, #12]
    81fc:	e0822003 	add	r2, r2, r3
    8200:	e3093660 	movw	r3, #38496	; 0x9660
    8204:	e3403000 	movt	r3, #0
    8208:	e5832000 	str	r2, [r3]
    820c:	ea00000c 	b	8244 <kAlloc_aligned+0x120>
    8210:	e1a02004 	mov	r2, r4
    8214:	e59d3014 	ldr	r3, [sp, #20]
    8218:	e0433002 	sub	r3, r3, r2
    821c:	e1a01003 	mov	r1, r3
    8220:	e1a00004 	mov	r0, r4
    8224:	eb00006f 	bl	83e8 <kFree>
    8228:	e59d2014 	ldr	r2, [sp, #20]
    822c:	e59d300c 	ldr	r3, [sp, #12]
    8230:	e0823003 	add	r3, r2, r3
    8234:	e1a02003 	mov	r2, r3
    8238:	e3093660 	movw	r3, #38496	; 0x9660
    823c:	e3403000 	movt	r3, #0
    8240:	e5832000 	str	r2, [r3]
    8244:	e3093660 	movw	r3, #38496	; 0x9660
    8248:	e3403000 	movt	r3, #0
    824c:	e5932000 	ldr	r2, [r3]
    8250:	e309365c 	movw	r3, #38492	; 0x965c
    8254:	e3403000 	movt	r3, #0
    8258:	e5933000 	ldr	r3, [r3]
    825c:	e1520003 	cmp	r2, r3
    8260:	9a00000e 	bls	82a0 <kAlloc_aligned+0x17c>
    8264:	e3e0300f 	mvn	r3, #15
    8268:	ea00001c 	b	82e0 <kAlloc_aligned+0x1bc>
    826c:	e1a02004 	mov	r2, r4
    8270:	e59d3014 	ldr	r3, [sp, #20]
    8274:	e1530002 	cmp	r3, r2
    8278:	1a000002 	bne	8288 <kAlloc_aligned+0x164>
    827c:	e5943000 	ldr	r3, [r4]
    8280:	e5853000 	str	r3, [r5]
    8284:	ea000005 	b	82a0 <kAlloc_aligned+0x17c>
    8288:	e5942004 	ldr	r2, [r4, #4]
    828c:	e59d300c 	ldr	r3, [sp, #12]
    8290:	e0423003 	sub	r3, r2, r3
    8294:	e1a01003 	mov	r1, r3
    8298:	e1a00004 	mov	r0, r4
    829c:	eb000051 	bl	83e8 <kFree>
    82a0:	e3a03000 	mov	r3, #0
    82a4:	e58d3010 	str	r3, [sp, #16]
    82a8:	ea000007 	b	82cc <kAlloc_aligned+0x1a8>
    82ac:	e59d2010 	ldr	r2, [sp, #16]
    82b0:	e59d3014 	ldr	r3, [sp, #20]
    82b4:	e0823003 	add	r3, r2, r3
    82b8:	e3a02000 	mov	r2, #0
    82bc:	e5c32000 	strb	r2, [r3]
    82c0:	e59d3010 	ldr	r3, [sp, #16]
    82c4:	e2833001 	add	r3, r3, #1
    82c8:	e58d3010 	str	r3, [sp, #16]
    82cc:	e59d3010 	ldr	r3, [sp, #16]
    82d0:	e59d200c 	ldr	r2, [sp, #12]
    82d4:	e1520003 	cmp	r2, r3
    82d8:	8afffff3 	bhi	82ac <kAlloc_aligned+0x188>
    82dc:	e59d3014 	ldr	r3, [sp, #20]
    82e0:	e1a00003 	mov	r0, r3
    82e4:	e28dd01c 	add	sp, sp, #28
    82e8:	e8bd8030 	pop	{r4, r5, pc}

000082ec <kAlloc>:
    82ec:	e92d0030 	push	{r4, r5}
    82f0:	e24dd010 	sub	sp, sp, #16
    82f4:	e58d0004 	str	r0, [sp, #4]
    82f8:	e3093650 	movw	r3, #38480	; 0x9650
    82fc:	e3403000 	movt	r3, #0
    8300:	e5934000 	ldr	r4, [r3]
    8304:	e59d3004 	ldr	r3, [sp, #4]
    8308:	e2833003 	add	r3, r3, #3
    830c:	e3c33003 	bic	r3, r3, #3
    8310:	e58d3008 	str	r3, [sp, #8]
    8314:	e3095650 	movw	r5, #38480	; 0x9650
    8318:	e3405000 	movt	r5, #0
    831c:	ea000001 	b	8328 <kAlloc+0x3c>
    8320:	e1a05004 	mov	r5, r4
    8324:	e5944000 	ldr	r4, [r4]
    8328:	e3540000 	cmp	r4, #0
    832c:	0a000003 	beq	8340 <kAlloc+0x54>
    8330:	e5943004 	ldr	r3, [r4, #4]
    8334:	e59d2008 	ldr	r2, [sp, #8]
    8338:	e1520003 	cmp	r2, r3
    833c:	1afffff7 	bne	8320 <kAlloc+0x34>
    8340:	e3540000 	cmp	r4, #0
    8344:	1a000014 	bne	839c <kAlloc+0xb0>
    8348:	e3093660 	movw	r3, #38496	; 0x9660
    834c:	e3403000 	movt	r3, #0
    8350:	e5934000 	ldr	r4, [r3]
    8354:	e3093660 	movw	r3, #38496	; 0x9660
    8358:	e3403000 	movt	r3, #0
    835c:	e5932000 	ldr	r2, [r3]
    8360:	e59d3008 	ldr	r3, [sp, #8]
    8364:	e0822003 	add	r2, r2, r3
    8368:	e3093660 	movw	r3, #38496	; 0x9660
    836c:	e3403000 	movt	r3, #0
    8370:	e5832000 	str	r2, [r3]
    8374:	e3093660 	movw	r3, #38496	; 0x9660
    8378:	e3403000 	movt	r3, #0
    837c:	e5932000 	ldr	r2, [r3]
    8380:	e309365c 	movw	r3, #38492	; 0x965c
    8384:	e3403000 	movt	r3, #0
    8388:	e5933000 	ldr	r3, [r3]
    838c:	e1520003 	cmp	r2, r3
    8390:	9a000003 	bls	83a4 <kAlloc+0xb8>
    8394:	e3e0300f 	mvn	r3, #15
    8398:	ea00000e 	b	83d8 <kAlloc+0xec>
    839c:	e5943000 	ldr	r3, [r4]
    83a0:	e5853000 	str	r3, [r5]
    83a4:	e3a03000 	mov	r3, #0
    83a8:	e58d300c 	str	r3, [sp, #12]
    83ac:	ea000004 	b	83c4 <kAlloc+0xd8>
    83b0:	e3a03000 	mov	r3, #0
    83b4:	e5c43000 	strb	r3, [r4]
    83b8:	e59d300c 	ldr	r3, [sp, #12]
    83bc:	e2833001 	add	r3, r3, #1
    83c0:	e58d300c 	str	r3, [sp, #12]
    83c4:	e59d300c 	ldr	r3, [sp, #12]
    83c8:	e59d2008 	ldr	r2, [sp, #8]
    83cc:	e1520003 	cmp	r2, r3
    83d0:	8afffff6 	bhi	83b0 <kAlloc+0xc4>
    83d4:	e1a03004 	mov	r3, r4
    83d8:	e1a00003 	mov	r0, r3
    83dc:	e28dd010 	add	sp, sp, #16
    83e0:	e8bd0030 	pop	{r4, r5}
    83e4:	e12fff1e 	bx	lr

000083e8 <kFree>:
    83e8:	e52d4004 	push	{r4}		; (str r4, [sp, #-4]!)
    83ec:	e24dd00c 	sub	sp, sp, #12
    83f0:	e58d0004 	str	r0, [sp, #4]
    83f4:	e58d1000 	str	r1, [sp]
    83f8:	e59d4004 	ldr	r4, [sp, #4]
    83fc:	e59d3000 	ldr	r3, [sp]
    8400:	e2833003 	add	r3, r3, #3
    8404:	e3c33003 	bic	r3, r3, #3
    8408:	e5843004 	str	r3, [r4, #4]
    840c:	e3093650 	movw	r3, #38480	; 0x9650
    8410:	e3403000 	movt	r3, #0
    8414:	e5933000 	ldr	r3, [r3]
    8418:	e5843000 	str	r3, [r4]
    841c:	e3093650 	movw	r3, #38480	; 0x9650
    8420:	e3403000 	movt	r3, #0
    8424:	e5834000 	str	r4, [r3]
    8428:	e320f000 	nop	{0}
    842c:	e28dd00c 	add	sp, sp, #12
    8430:	e49d4004 	pop	{r4}		; (ldr r4, [sp], #4)
    8434:	e12fff1e 	bx	lr

00008438 <kheap_init>:
    8438:	e3093660 	movw	r3, #38496	; 0x9660
    843c:	e3403000 	movt	r3, #0
    8440:	e30a2000 	movw	r2, #40960	; 0xa000
    8444:	e3402000 	movt	r2, #0
    8448:	e5832000 	str	r2, [r3]
    844c:	e309365c 	movw	r3, #38492	; 0x965c
    8450:	e3403000 	movt	r3, #0
    8454:	e30f2fff 	movw	r2, #65535	; 0xffff
    8458:	e34020ff 	movt	r2, #255	; 0xff
    845c:	e5832000 	str	r2, [r3]
    8460:	e320f000 	nop	{0}
    8464:	e12fff1e 	bx	lr

00008468 <C_swi_handler>:
    8468:	e92d5fff 	push	{r0, r1, r2, r3, r4, r5, r6, r7, r8, r9, sl, fp, ip, lr}
    846c:	e1a03000 	mov	r3, r0
    8470:	e1a04003 	mov	r4, r3
    8474:	e1a0200d 	mov	r2, sp
    8478:	e3093664 	movw	r3, #38500	; 0x9664
    847c:	e3403000 	movt	r3, #0
    8480:	e5832000 	str	r2, [r3]
    8484:	e2443001 	sub	r3, r4, #1
    8488:	e3530004 	cmp	r3, #4
    848c:	979ff103 	ldrls	pc, [pc, r3, lsl #2]
    8490:	ea00000e 	b	84d0 <C_swi_handler+0x68>
    8494:	000084a8 	.word	0x000084a8
    8498:	000084b0 	.word	0x000084b0
    849c:	000084b8 	.word	0x000084b8
    84a0:	000084c0 	.word	0x000084c0
    84a4:	000084c8 	.word	0x000084c8
    84a8:	eb000013 	bl	84fc <do_sys_reboot>
    84ac:	ea00000c 	b	84e4 <C_swi_handler+0x7c>
    84b0:	eb000018 	bl	8518 <do_sys_nop>
    84b4:	ea00000a 	b	84e4 <C_swi_handler+0x7c>
    84b8:	eb000021 	bl	8544 <do_sys_settime>
    84bc:	ea000008 	b	84e4 <C_swi_handler+0x7c>
    84c0:	eb000035 	bl	859c <do_sys_gettime>
    84c4:	ea000006 	b	84e4 <C_swi_handler+0x7c>
    84c8:	eb000054 	bl	8620 <do_sys_yieldto>
    84cc:	ea000004 	b	84e4 <C_swi_handler+0x7c>
    84d0:	e3a01029 	mov	r1, #41	; 0x29
    84d4:	e30906b8 	movw	r0, #38584	; 0x96b8
    84d8:	e3400000 	movt	r0, #0
    84dc:	eb000421 	bl	9568 <kernel_panic>
    84e0:	e320f000 	nop	{0}
    84e4:	e8fd9fff 	ldm	sp!, {r0, r1, r2, r3, r4, r5, r6, r7, r8, r9, sl, fp, ip, pc}^
    84e8:	e320f000 	nop	{0}

000084ec <sys_reboot>:
    84ec:	e3a00001 	mov	r0, #1
    84f0:	ef000000 	svc	0x00000000
    84f4:	e320f000 	nop	{0}
    84f8:	e12fff1e 	bx	lr

000084fc <do_sys_reboot>:
    84fc:	eafffebf 	b	8000 <vector>
    8500:	e320f000 	nop	{0}
    8504:	e12fff1e 	bx	lr

00008508 <sys_nop>:
    8508:	e3a00002 	mov	r0, #2
    850c:	ef000000 	svc	0x00000000
    8510:	e320f000 	nop	{0}
    8514:	e12fff1e 	bx	lr

00008518 <do_sys_nop>:
    8518:	e320f000 	nop	{0}
    851c:	e12fff1e 	bx	lr

00008520 <sys_settime>:
    8520:	e24dd008 	sub	sp, sp, #8
    8524:	e1cd00f0 	strd	r0, [sp]
    8528:	e3a00003 	mov	r0, #3
    852c:	e1cd20d0 	ldrd	r2, [sp]
    8530:	e1a02002 	mov	r2, r2
    8534:	ef000000 	svc	0x00000000
    8538:	e320f000 	nop	{0}
    853c:	e28dd008 	add	sp, sp, #8
    8540:	e12fff1e 	bx	lr

00008544 <do_sys_settime>:
    8544:	e52de004 	push	{lr}		; (str lr, [sp, #-4]!)
    8548:	e24dd00c 	sub	sp, sp, #12
    854c:	e3093664 	movw	r3, #38500	; 0x9664
    8550:	e3403000 	movt	r3, #0
    8554:	e5933000 	ldr	r3, [r3]
    8558:	e1c320d8 	ldrd	r2, [r3, #8]
    855c:	e1cd20f0 	strd	r2, [sp]
    8560:	e1cd00d0 	ldrd	r0, [sp]
    8564:	eb0000c2 	bl	8874 <set_date_ms>
    8568:	e320f000 	nop	{0}
    856c:	e28dd00c 	add	sp, sp, #12
    8570:	e49df004 	pop	{pc}		; (ldr pc, [sp], #4)

00008574 <sys_gettime>:
    8574:	e24dd008 	sub	sp, sp, #8
    8578:	e3a00004 	mov	r0, #4
    857c:	ef000000 	svc	0x00000000
    8580:	e1a02002 	mov	r2, r2
    8584:	e1cd20f0 	strd	r2, [sp]
    8588:	e1cd20d0 	ldrd	r2, [sp]
    858c:	e1a00002 	mov	r0, r2
    8590:	e1a01003 	mov	r1, r3
    8594:	e28dd008 	add	sp, sp, #8
    8598:	e12fff1e 	bx	lr

0000859c <do_sys_gettime>:
    859c:	e52de004 	push	{lr}		; (str lr, [sp, #-4]!)
    85a0:	e24dd00c 	sub	sp, sp, #12
    85a4:	eb0000a9 	bl	8850 <get_date_ms>
    85a8:	e1cd00f0 	strd	r0, [sp]
    85ac:	e3093664 	movw	r3, #38500	; 0x9664
    85b0:	e3403000 	movt	r3, #0
    85b4:	e5933000 	ldr	r3, [r3]
    85b8:	e2833008 	add	r3, r3, #8
    85bc:	e59d2000 	ldr	r2, [sp]
    85c0:	e5832000 	str	r2, [r3]
    85c4:	e1cd00d0 	ldrd	r0, [sp]
    85c8:	e3a02000 	mov	r2, #0
    85cc:	e3a03000 	mov	r3, #0
    85d0:	e1a02001 	mov	r2, r1
    85d4:	e3a03000 	mov	r3, #0
    85d8:	e3091664 	movw	r1, #38500	; 0x9664
    85dc:	e3401000 	movt	r1, #0
    85e0:	e5911000 	ldr	r1, [r1]
    85e4:	e281100c 	add	r1, r1, #12
    85e8:	e1a03002 	mov	r3, r2
    85ec:	e5813000 	str	r3, [r1]
    85f0:	e320f000 	nop	{0}
    85f4:	e28dd00c 	add	sp, sp, #12
    85f8:	e49df004 	pop	{pc}		; (ldr pc, [sp], #4)

000085fc <sys_yieldto>:
    85fc:	e24dd008 	sub	sp, sp, #8
    8600:	e58d0004 	str	r0, [sp, #4]
    8604:	e3a00005 	mov	r0, #5
    8608:	e59d3004 	ldr	r3, [sp, #4]
    860c:	e1a01003 	mov	r1, r3
    8610:	ef000000 	svc	0x00000000
    8614:	e320f000 	nop	{0}
    8618:	e28dd008 	add	sp, sp, #8
    861c:	e12fff1e 	bx	lr

00008620 <do_sys_yieldto>:
    8620:	e24dd010 	sub	sp, sp, #16
    8624:	e3093664 	movw	r3, #38500	; 0x9664
    8628:	e3403000 	movt	r3, #0
    862c:	e5933000 	ldr	r3, [r3]
    8630:	e2833004 	add	r3, r3, #4
    8634:	e5933000 	ldr	r3, [r3]
    8638:	e58d3004 	str	r3, [sp, #4]
    863c:	e3a03000 	mov	r3, #0
    8640:	e58d300c 	str	r3, [sp, #12]
    8644:	ea00000f 	b	8688 <do_sys_yieldto+0x68>
    8648:	e3093664 	movw	r3, #38500	; 0x9664
    864c:	e3403000 	movt	r3, #0
    8650:	e5932000 	ldr	r2, [r3]
    8654:	e59d300c 	ldr	r3, [sp, #12]
    8658:	e1a03103 	lsl	r3, r3, #2
    865c:	e0823003 	add	r3, r2, r3
    8660:	e5932000 	ldr	r2, [r3]
    8664:	e30936ac 	movw	r3, #38572	; 0x96ac
    8668:	e3403000 	movt	r3, #0
    866c:	e5933000 	ldr	r3, [r3]
    8670:	e1a01002 	mov	r1, r2
    8674:	e59d200c 	ldr	r2, [sp, #12]
    8678:	e7831102 	str	r1, [r3, r2, lsl #2]
    867c:	e59d300c 	ldr	r3, [sp, #12]
    8680:	e2833001 	add	r3, r3, #1
    8684:	e58d300c 	str	r3, [sp, #12]
    8688:	e59d300c 	ldr	r3, [sp, #12]
    868c:	e353000c 	cmp	r3, #12
    8690:	daffffec 	ble	8648 <do_sys_yieldto+0x28>
    8694:	f102001f 	cps	#31
    8698:	e30936ac 	movw	r3, #38572	; 0x96ac
    869c:	e3403000 	movt	r3, #0
    86a0:	e5933000 	ldr	r3, [r3]
    86a4:	e1a0200e 	mov	r2, lr
    86a8:	e5832038 	str	r2, [r3, #56]	; 0x38
    86ac:	e30936ac 	movw	r3, #38572	; 0x96ac
    86b0:	e3403000 	movt	r3, #0
    86b4:	e5933000 	ldr	r3, [r3]
    86b8:	e1a0200d 	mov	r2, sp
    86bc:	e5832034 	str	r2, [r3, #52]	; 0x34
    86c0:	f1020013 	cps	#19
    86c4:	e14f0000 	mrs	r0, SPSR
    86c8:	e30936ac 	movw	r3, #38572	; 0x96ac
    86cc:	e3403000 	movt	r3, #0
    86d0:	e5933000 	ldr	r3, [r3]
    86d4:	e1a02000 	mov	r2, r0
    86d8:	e583203c 	str	r2, [r3, #60]	; 0x3c
    86dc:	e30936ac 	movw	r3, #38572	; 0x96ac
    86e0:	e3403000 	movt	r3, #0
    86e4:	e59d2004 	ldr	r2, [sp, #4]
    86e8:	e5832000 	str	r2, [r3]
    86ec:	e3a03000 	mov	r3, #0
    86f0:	e58d3008 	str	r3, [sp, #8]
    86f4:	ea00000f 	b	8738 <do_sys_yieldto+0x118>
    86f8:	e30936ac 	movw	r3, #38572	; 0x96ac
    86fc:	e3403000 	movt	r3, #0
    8700:	e5933000 	ldr	r3, [r3]
    8704:	e59d2008 	ldr	r2, [sp, #8]
    8708:	e7931102 	ldr	r1, [r3, r2, lsl #2]
    870c:	e3093664 	movw	r3, #38500	; 0x9664
    8710:	e3403000 	movt	r3, #0
    8714:	e5932000 	ldr	r2, [r3]
    8718:	e59d3008 	ldr	r3, [sp, #8]
    871c:	e1a03103 	lsl	r3, r3, #2
    8720:	e0823003 	add	r3, r2, r3
    8724:	e1a02001 	mov	r2, r1
    8728:	e5832000 	str	r2, [r3]
    872c:	e59d3008 	ldr	r3, [sp, #8]
    8730:	e2833001 	add	r3, r3, #1
    8734:	e58d3008 	str	r3, [sp, #8]
    8738:	e59d3008 	ldr	r3, [sp, #8]
    873c:	e353000c 	cmp	r3, #12
    8740:	daffffec 	ble	86f8 <do_sys_yieldto+0xd8>
    8744:	f102001f 	cps	#31
    8748:	e30936ac 	movw	r3, #38572	; 0x96ac
    874c:	e3403000 	movt	r3, #0
    8750:	e5933000 	ldr	r3, [r3]
    8754:	e5933038 	ldr	r3, [r3, #56]	; 0x38
    8758:	e1a0e003 	mov	lr, r3
    875c:	e30936ac 	movw	r3, #38572	; 0x96ac
    8760:	e3403000 	movt	r3, #0
    8764:	e5933000 	ldr	r3, [r3]
    8768:	e5933034 	ldr	r3, [r3, #52]	; 0x34
    876c:	e1a0d003 	mov	sp, r3
    8770:	f1020013 	cps	#19
    8774:	e30936ac 	movw	r3, #38572	; 0x96ac
    8778:	e3403000 	movt	r3, #0
    877c:	e5933000 	ldr	r3, [r3]
    8780:	e593303c 	ldr	r3, [r3, #60]	; 0x3c
    8784:	e1a00003 	mov	r0, r3
    8788:	e169f000 	msr	SPSR_fc, r0
    878c:	e320f000 	nop	{0}
    8790:	e28dd010 	add	sp, sp, #16
    8794:	e12fff1e 	bx	lr

00008798 <divide>:
    8798:	e92d0030 	push	{r4, r5}
    879c:	e24dd018 	sub	sp, sp, #24
    87a0:	e1cd00f8 	strd	r0, [sp, #8]
    87a4:	e1cd20f0 	strd	r2, [sp]
    87a8:	e3a03000 	mov	r3, #0
    87ac:	e58d3014 	str	r3, [sp, #20]
    87b0:	ea000009 	b	87dc <divide+0x44>
    87b4:	e1cd00d8 	ldrd	r0, [sp, #8]
    87b8:	e1cd20d0 	ldrd	r2, [sp]
    87bc:	e0500002 	subs	r0, r0, r2
    87c0:	e0c11003 	sbc	r1, r1, r3
    87c4:	e1a04000 	mov	r4, r0
    87c8:	e1a05001 	mov	r5, r1
    87cc:	e1cd40f8 	strd	r4, [sp, #8]
    87d0:	e59d3014 	ldr	r3, [sp, #20]
    87d4:	e2833001 	add	r3, r3, #1
    87d8:	e58d3014 	str	r3, [sp, #20]
    87dc:	e1cd00d8 	ldrd	r0, [sp, #8]
    87e0:	e1cd20d0 	ldrd	r2, [sp]
    87e4:	e1510003 	cmp	r1, r3
    87e8:	01500002 	cmpeq	r0, r2
    87ec:	2afffff0 	bcs	87b4 <divide+0x1c>
    87f0:	e59d3014 	ldr	r3, [sp, #20]
    87f4:	e1a02003 	mov	r2, r3
    87f8:	e1a03fc2 	asr	r3, r2, #31
    87fc:	e1a00002 	mov	r0, r2
    8800:	e1a01003 	mov	r1, r3
    8804:	e28dd018 	add	sp, sp, #24
    8808:	e8bd0030 	pop	{r4, r5}
    880c:	e12fff1e 	bx	lr

00008810 <mmio_write>:
    8810:	e24dd008 	sub	sp, sp, #8
    8814:	e58d0004 	str	r0, [sp, #4]
    8818:	e58d1000 	str	r1, [sp]
    881c:	e59d3004 	ldr	r3, [sp, #4]
    8820:	e59d2000 	ldr	r2, [sp]
    8824:	e5832000 	str	r2, [r3]
    8828:	e320f000 	nop	{0}
    882c:	e28dd008 	add	sp, sp, #8
    8830:	e12fff1e 	bx	lr

00008834 <mmio_read>:
    8834:	e24dd008 	sub	sp, sp, #8
    8838:	e58d0004 	str	r0, [sp, #4]
    883c:	e59d3004 	ldr	r3, [sp, #4]
    8840:	e5933000 	ldr	r3, [r3]
    8844:	e1a00003 	mov	r0, r3
    8848:	e28dd008 	add	sp, sp, #8
    884c:	e12fff1e 	bx	lr

00008850 <get_date_ms>:
    8850:	e24dd008 	sub	sp, sp, #8
    8854:	e3a02042 	mov	r2, #66	; 0x42
    8858:	e3a03043 	mov	r3, #67	; 0x43
    885c:	e1cd20f0 	strd	r2, [sp]
    8860:	e1cd20d0 	ldrd	r2, [sp]
    8864:	e1a00002 	mov	r0, r2
    8868:	e1a01003 	mov	r1, r3
    886c:	e28dd008 	add	sp, sp, #8
    8870:	e12fff1e 	bx	lr

00008874 <set_date_ms>:
    8874:	e52de004 	push	{lr}		; (str lr, [sp, #-4]!)
    8878:	e24dd01c 	sub	sp, sp, #28
    887c:	e1cd00f0 	strd	r0, [sp]
    8880:	e59d2004 	ldr	r2, [sp, #4]
    8884:	e30d3090 	movw	r3, #53392	; 0xd090
    8888:	e3403003 	movt	r3, #3
    888c:	e0020293 	mul	r2, r3, r2
    8890:	e59d3000 	ldr	r3, [sp]
    8894:	e3a01000 	mov	r1, #0
    8898:	e0030391 	mul	r3, r1, r3
    889c:	e0821003 	add	r1, r2, r3
    88a0:	e59d2000 	ldr	r2, [sp]
    88a4:	e30d3090 	movw	r3, #53392	; 0xd090
    88a8:	e3403003 	movt	r3, #3
    88ac:	e0832392 	umull	r2, r3, r2, r3
    88b0:	e0811003 	add	r1, r1, r3
    88b4:	e1a03001 	mov	r3, r1
    88b8:	e1cd21f0 	strd	r2, [sp, #16]
    88bc:	e1cd21f0 	strd	r2, [sp, #16]
    88c0:	e59d3010 	ldr	r3, [sp, #16]
    88c4:	e58d300c 	str	r3, [sp, #12]
    88c8:	e1cd01d0 	ldrd	r0, [sp, #16]
    88cc:	e3a02000 	mov	r2, #0
    88d0:	e3a03000 	mov	r3, #0
    88d4:	e1a02001 	mov	r2, r1
    88d8:	e3a03000 	mov	r3, #0
    88dc:	e1a03002 	mov	r3, r2
    88e0:	e58d3008 	str	r3, [sp, #8]
    88e4:	e59d300c 	ldr	r3, [sp, #12]
    88e8:	e1a01003 	mov	r1, r3
    88ec:	e3030004 	movw	r0, #12292	; 0x3004
    88f0:	e3420000 	movt	r0, #8192	; 0x2000
    88f4:	eb000309 	bl	9520 <Set32>
    88f8:	e59d3008 	ldr	r3, [sp, #8]
    88fc:	e1a01003 	mov	r1, r3
    8900:	e3030008 	movw	r0, #12296	; 0x3008
    8904:	e3420000 	movt	r0, #8192	; 0x2000
    8908:	eb000304 	bl	9520 <Set32>
    890c:	e320f000 	nop	{0}
    8910:	e28dd01c 	add	sp, sp, #28
    8914:	e49df004 	pop	{pc}		; (ldr pc, [sp], #4)

00008918 <routing_core0cntv_to_core0irq>:
    8918:	e92d4010 	push	{r4, lr}
    891c:	e3a01008 	mov	r1, #8
    8920:	e3a00040 	mov	r0, #64	; 0x40
    8924:	e3440000 	movt	r0, #16384	; 0x4000
    8928:	ebffffb8 	bl	8810 <mmio_write>
    892c:	e320f000 	nop	{0}
    8930:	e8bd8010 	pop	{r4, pc}

00008934 <read_core0timer_pending>:
    8934:	e52de004 	push	{lr}		; (str lr, [sp, #-4]!)
    8938:	e24dd00c 	sub	sp, sp, #12
    893c:	e3a00060 	mov	r0, #96	; 0x60
    8940:	e3440000 	movt	r0, #16384	; 0x4000
    8944:	ebffffba 	bl	8834 <mmio_read>
    8948:	e58d0004 	str	r0, [sp, #4]
    894c:	e59d3004 	ldr	r3, [sp, #4]
    8950:	e1a00003 	mov	r0, r3
    8954:	e28dd00c 	add	sp, sp, #12
    8958:	e49df004 	pop	{pc}		; (ldr pc, [sp], #4)

0000895c <enable_cntv>:
    895c:	e24dd008 	sub	sp, sp, #8
    8960:	e3a03001 	mov	r3, #1
    8964:	e58d3004 	str	r3, [sp, #4]
    8968:	e59d3004 	ldr	r3, [sp, #4]
    896c:	ee0e3f33 	mcr	15, 0, r3, cr14, cr3, {1}
    8970:	e320f000 	nop	{0}
    8974:	e28dd008 	add	sp, sp, #8
    8978:	e12fff1e 	bx	lr

0000897c <disable_cntv>:
    897c:	e24dd008 	sub	sp, sp, #8
    8980:	e3a03000 	mov	r3, #0
    8984:	e58d3004 	str	r3, [sp, #4]
    8988:	e59d3004 	ldr	r3, [sp, #4]
    898c:	ee0e3f33 	mcr	15, 0, r3, cr14, cr3, {1}
    8990:	e320f000 	nop	{0}
    8994:	e28dd008 	add	sp, sp, #8
    8998:	e12fff1e 	bx	lr

0000899c <write_cntv_tval>:
    899c:	e24dd008 	sub	sp, sp, #8
    89a0:	e58d0004 	str	r0, [sp, #4]
    89a4:	e59d3004 	ldr	r3, [sp, #4]
    89a8:	ee0e3f13 	mcr	15, 0, r3, cr14, cr3, {0}
    89ac:	e320f000 	nop	{0}
    89b0:	e28dd008 	add	sp, sp, #8
    89b4:	e12fff1e 	bx	lr

000089b8 <read_cntfrq>:
    89b8:	e24dd008 	sub	sp, sp, #8
    89bc:	ee1e3f10 	mrc	15, 0, r3, cr14, cr0, {0}
    89c0:	e58d3004 	str	r3, [sp, #4]
    89c4:	e59d3004 	ldr	r3, [sp, #4]
    89c8:	e1a00003 	mov	r0, r3
    89cc:	e28dd008 	add	sp, sp, #8
    89d0:	e12fff1e 	bx	lr

000089d4 <clear_and_set_timer>:
    89d4:	e92d4010 	push	{r4, lr}
    89d8:	ebfffff6 	bl	89b8 <read_cntfrq>
    89dc:	e1a02000 	mov	r2, r0
    89e0:	e3093654 	movw	r3, #38484	; 0x9654
    89e4:	e3403000 	movt	r3, #0
    89e8:	e5832000 	str	r2, [r3]
    89ec:	e3093654 	movw	r3, #38484	; 0x9654
    89f0:	e3403000 	movt	r3, #0
    89f4:	e5933000 	ldr	r3, [r3]
    89f8:	e1a00003 	mov	r0, r3
    89fc:	ebffffe6 	bl	899c <write_cntv_tval>
    8a00:	e320f000 	nop	{0}
    8a04:	e8bd8010 	pop	{r4, pc}

00008a08 <timer_init>:
    8a08:	e92d4010 	push	{r4, lr}
    8a0c:	ebfffff0 	bl	89d4 <clear_and_set_timer>
    8a10:	ebffffc0 	bl	8918 <routing_core0cntv_to_core0irq>
    8a14:	ebffffd0 	bl	895c <enable_cntv>
    8a18:	e320f000 	nop	{0}
    8a1c:	e8bd8010 	pop	{r4, pc}

00008a20 <led_on>:
    8a20:	e24dd008 	sub	sp, sp, #8
    8a24:	e3a03028 	mov	r3, #40	; 0x28
    8a28:	e3423020 	movt	r3, #8224	; 0x2020
    8a2c:	e58d3004 	str	r3, [sp, #4]
    8a30:	e59d3004 	ldr	r3, [sp, #4]
    8a34:	e5933000 	ldr	r3, [r3]
    8a38:	e3832801 	orr	r2, r3, #65536	; 0x10000
    8a3c:	e59d3004 	ldr	r3, [sp, #4]
    8a40:	e5832000 	str	r2, [r3]
    8a44:	e3093658 	movw	r3, #38488	; 0x9658
    8a48:	e3403000 	movt	r3, #0
    8a4c:	e3a02001 	mov	r2, #1
    8a50:	e5832000 	str	r2, [r3]
    8a54:	e320f000 	nop	{0}
    8a58:	e28dd008 	add	sp, sp, #8
    8a5c:	e12fff1e 	bx	lr

00008a60 <led_off>:
    8a60:	e24dd008 	sub	sp, sp, #8
    8a64:	e3a0301c 	mov	r3, #28
    8a68:	e3423020 	movt	r3, #8224	; 0x2020
    8a6c:	e58d3004 	str	r3, [sp, #4]
    8a70:	e59d3004 	ldr	r3, [sp, #4]
    8a74:	e5933000 	ldr	r3, [r3]
    8a78:	e3832801 	orr	r2, r3, #65536	; 0x10000
    8a7c:	e59d3004 	ldr	r3, [sp, #4]
    8a80:	e5832000 	str	r2, [r3]
    8a84:	e3093658 	movw	r3, #38488	; 0x9658
    8a88:	e3403000 	movt	r3, #0
    8a8c:	e3a02000 	mov	r2, #0
    8a90:	e5832000 	str	r2, [r3]
    8a94:	e320f000 	nop	{0}
    8a98:	e28dd008 	add	sp, sp, #8
    8a9c:	e12fff1e 	bx	lr

00008aa0 <led_switch>:
    8aa0:	e92d4010 	push	{r4, lr}
    8aa4:	e3093658 	movw	r3, #38488	; 0x9658
    8aa8:	e3403000 	movt	r3, #0
    8aac:	e5933000 	ldr	r3, [r3]
    8ab0:	e2033001 	and	r3, r3, #1
    8ab4:	e3530000 	cmp	r3, #0
    8ab8:	1a000001 	bne	8ac4 <led_switch+0x24>
    8abc:	ebffffe7 	bl	8a60 <led_off>
    8ac0:	ea000000 	b	8ac8 <led_switch+0x28>
    8ac4:	ebffffd5 	bl	8a20 <led_on>
    8ac8:	e320f000 	nop	{0}
    8acc:	e8bd8010 	pop	{r4, pc}

00008ad0 <led_status>:
    8ad0:	e3093658 	movw	r3, #38488	; 0x9658
    8ad4:	e3403000 	movt	r3, #0
    8ad8:	e5933000 	ldr	r3, [r3]
    8adc:	e1a00003 	mov	r0, r3
    8ae0:	e12fff1e 	bx	lr

00008ae4 <led_init>:
    8ae4:	e52de004 	push	{lr}		; (str lr, [sp, #-4]!)
    8ae8:	e24dd00c 	sub	sp, sp, #12
    8aec:	e3a03004 	mov	r3, #4
    8af0:	e3423020 	movt	r3, #8224	; 0x2020
    8af4:	e58d3004 	str	r3, [sp, #4]
    8af8:	e59d3004 	ldr	r3, [sp, #4]
    8afc:	e5933000 	ldr	r3, [r3]
    8b00:	e3832701 	orr	r2, r3, #262144	; 0x40000
    8b04:	e59d3004 	ldr	r3, [sp, #4]
    8b08:	e5832000 	str	r2, [r3]
    8b0c:	ebffffd3 	bl	8a60 <led_off>
    8b10:	e320f000 	nop	{0}
    8b14:	e28dd00c 	add	sp, sp, #12
    8b18:	e49df004 	pop	{pc}		; (ldr pc, [sp], #4)

00008b1c <led_blink>:
    8b1c:	e52de004 	push	{lr}		; (str lr, [sp, #-4]!)
    8b20:	e24dd00c 	sub	sp, sp, #12
    8b24:	e3a03000 	mov	r3, #0
    8b28:	e58d3004 	str	r3, [sp, #4]
    8b2c:	e3a03000 	mov	r3, #0
    8b30:	e58d3000 	str	r3, [sp]
    8b34:	e3a03000 	mov	r3, #0
    8b38:	e58d3004 	str	r3, [sp, #4]
    8b3c:	ea000016 	b	8b9c <led_blink+0x80>
    8b40:	ebffffb6 	bl	8a20 <led_on>
    8b44:	e3a03000 	mov	r3, #0
    8b48:	e58d3000 	str	r3, [sp]
    8b4c:	ea000002 	b	8b5c <led_blink+0x40>
    8b50:	e59d3000 	ldr	r3, [sp]
    8b54:	e2833001 	add	r3, r3, #1
    8b58:	e58d3000 	str	r3, [sp]
    8b5c:	e59d3000 	ldr	r3, [sp]
    8b60:	e3530ffa 	cmp	r3, #1000	; 0x3e8
    8b64:	bafffff9 	blt	8b50 <led_blink+0x34>
    8b68:	ebffffbc 	bl	8a60 <led_off>
    8b6c:	e3a03000 	mov	r3, #0
    8b70:	e58d3000 	str	r3, [sp]
    8b74:	ea000002 	b	8b84 <led_blink+0x68>
    8b78:	e59d3000 	ldr	r3, [sp]
    8b7c:	e2833001 	add	r3, r3, #1
    8b80:	e58d3000 	str	r3, [sp]
    8b84:	e59d3000 	ldr	r3, [sp]
    8b88:	e3530ffa 	cmp	r3, #1000	; 0x3e8
    8b8c:	bafffff9 	blt	8b78 <led_blink+0x5c>
    8b90:	e59d3004 	ldr	r3, [sp, #4]
    8b94:	e2833001 	add	r3, r3, #1
    8b98:	e58d3004 	str	r3, [sp, #4]
    8b9c:	e59d3004 	ldr	r3, [sp, #4]
    8ba0:	e3530009 	cmp	r3, #9
    8ba4:	daffffe5 	ble	8b40 <led_blink+0x24>
    8ba8:	e320f000 	nop	{0}
    8bac:	e28dd00c 	add	sp, sp, #12
    8bb0:	e49df004 	pop	{pc}		; (ldr pc, [sp], #4)

00008bb4 <hw_init>:
    8bb4:	e92d4010 	push	{r4, lr}
    8bb8:	eb00000b 	bl	8bec <uart_init>
    8bbc:	ebffffc8 	bl	8ae4 <led_init>
    8bc0:	e320f000 	nop	{0}
    8bc4:	e8bd8010 	pop	{r4, pc}

00008bc8 <terminate_kernel>:
    8bc8:	e92d4010 	push	{r4, lr}
    8bcc:	e30906c8 	movw	r0, #38600	; 0x96c8
    8bd0:	e3400000 	movt	r0, #0
    8bd4:	eb000051 	bl	8d20 <uart_send_str>
    8bd8:	e30906d0 	movw	r0, #38608	; 0x96d0
    8bdc:	e3400000 	movt	r0, #0
    8be0:	eb00004e 	bl	8d20 <uart_send_str>
    8be4:	e320f000 	nop	{0}
    8be8:	e8bd8010 	pop	{r4, pc}

00008bec <uart_init>:
    8bec:	e92d4010 	push	{r4, lr}
    8bf0:	e3a01000 	mov	r1, #0
    8bf4:	e3010030 	movw	r0, #4144	; 0x1030
    8bf8:	e3420020 	movt	r0, #8224	; 0x2020
    8bfc:	eb000247 	bl	9520 <Set32>
    8c00:	e3a00004 	mov	r0, #4
    8c04:	e3420020 	movt	r0, #8224	; 0x2020
    8c08:	eb000246 	bl	9528 <Get32>
    8c0c:	e1a03000 	mov	r3, r0
    8c10:	e3833901 	orr	r3, r3, #16384	; 0x4000
    8c14:	e1a01003 	mov	r1, r3
    8c18:	e3a00004 	mov	r0, #4
    8c1c:	e3420020 	movt	r0, #8224	; 0x2020
    8c20:	eb00023e 	bl	9520 <Set32>
    8c24:	e3a00004 	mov	r0, #4
    8c28:	e3420020 	movt	r0, #8224	; 0x2020
    8c2c:	eb00023d 	bl	9528 <Get32>
    8c30:	e1a03000 	mov	r3, r0
    8c34:	e3833802 	orr	r3, r3, #131072	; 0x20000
    8c38:	e1a01003 	mov	r1, r3
    8c3c:	e3a00004 	mov	r0, #4
    8c40:	e3420020 	movt	r0, #8224	; 0x2020
    8c44:	eb000235 	bl	9520 <Set32>
    8c48:	e3a01000 	mov	r1, #0
    8c4c:	e3a00094 	mov	r0, #148	; 0x94
    8c50:	e3420020 	movt	r0, #8224	; 0x2020
    8c54:	eb000231 	bl	9520 <Set32>
    8c58:	e3a00096 	mov	r0, #150	; 0x96
    8c5c:	eb000233 	bl	9530 <delay>
    8c60:	e3a01903 	mov	r1, #49152	; 0xc000
    8c64:	e3a00098 	mov	r0, #152	; 0x98
    8c68:	e3420020 	movt	r0, #8224	; 0x2020
    8c6c:	eb00022b 	bl	9520 <Set32>
    8c70:	e3a00096 	mov	r0, #150	; 0x96
    8c74:	eb00022d 	bl	9530 <delay>
    8c78:	e3a01000 	mov	r1, #0
    8c7c:	e3a00094 	mov	r0, #148	; 0x94
    8c80:	e3420020 	movt	r0, #8224	; 0x2020
    8c84:	eb000225 	bl	9520 <Set32>
    8c88:	e3a01000 	mov	r1, #0
    8c8c:	e3a00098 	mov	r0, #152	; 0x98
    8c90:	e3420020 	movt	r0, #8224	; 0x2020
    8c94:	eb000221 	bl	9520 <Set32>
    8c98:	e3a01000 	mov	r1, #0
    8c9c:	e301002c 	movw	r0, #4140	; 0x102c
    8ca0:	e3420020 	movt	r0, #8224	; 0x2020
    8ca4:	eb00021d 	bl	9520 <Set32>
    8ca8:	e3a01000 	mov	r1, #0
    8cac:	e3010044 	movw	r0, #4164	; 0x1044
    8cb0:	e3420020 	movt	r0, #8224	; 0x2020
    8cb4:	eb000219 	bl	9520 <Set32>
    8cb8:	e3a01001 	mov	r1, #1
    8cbc:	e3010024 	movw	r0, #4132	; 0x1024
    8cc0:	e3420020 	movt	r0, #8224	; 0x2020
    8cc4:	eb000215 	bl	9520 <Set32>
    8cc8:	e3a01028 	mov	r1, #40	; 0x28
    8ccc:	e3010028 	movw	r0, #4136	; 0x1028
    8cd0:	e3420020 	movt	r0, #8224	; 0x2020
    8cd4:	eb000211 	bl	9520 <Set32>
    8cd8:	e3a01060 	mov	r1, #96	; 0x60
    8cdc:	e301002c 	movw	r0, #4140	; 0x102c
    8ce0:	e3420020 	movt	r0, #8224	; 0x2020
    8ce4:	eb00020d 	bl	9520 <Set32>
    8ce8:	e3a01000 	mov	r1, #0
    8cec:	e3010034 	movw	r0, #4148	; 0x1034
    8cf0:	e3420020 	movt	r0, #8224	; 0x2020
    8cf4:	eb000209 	bl	9520 <Set32>
    8cf8:	e30017f2 	movw	r1, #2034	; 0x7f2
    8cfc:	e3010038 	movw	r0, #4152	; 0x1038
    8d00:	e3420020 	movt	r0, #8224	; 0x2020
    8d04:	eb000205 	bl	9520 <Set32>
    8d08:	e3001301 	movw	r1, #769	; 0x301
    8d0c:	e3010030 	movw	r0, #4144	; 0x1030
    8d10:	e3420020 	movt	r0, #8224	; 0x2020
    8d14:	eb000201 	bl	9520 <Set32>
    8d18:	e320f000 	nop	{0}
    8d1c:	e8bd8010 	pop	{r4, pc}

00008d20 <uart_send_str>:
    8d20:	e52de004 	push	{lr}		; (str lr, [sp, #-4]!)
    8d24:	e24dd00c 	sub	sp, sp, #12
    8d28:	e58d0004 	str	r0, [sp, #4]
    8d2c:	e59d3004 	ldr	r3, [sp, #4]
    8d30:	e5d33000 	ldrb	r3, [r3]
    8d34:	e3530000 	cmp	r3, #0
    8d38:	0a00001c 	beq	8db0 <uart_send_str+0x90>
    8d3c:	e320f000 	nop	{0}
    8d40:	e3010018 	movw	r0, #4120	; 0x1018
    8d44:	e3420020 	movt	r0, #8224	; 0x2020
    8d48:	eb0001f6 	bl	9528 <Get32>
    8d4c:	e1a03000 	mov	r3, r0
    8d50:	e2033020 	and	r3, r3, #32
    8d54:	e3530000 	cmp	r3, #0
    8d58:	1afffff8 	bne	8d40 <uart_send_str+0x20>
    8d5c:	e59d3004 	ldr	r3, [sp, #4]
    8d60:	e2832001 	add	r2, r3, #1
    8d64:	e58d2004 	str	r2, [sp, #4]
    8d68:	e5d33000 	ldrb	r3, [r3]
    8d6c:	e1a01003 	mov	r1, r3
    8d70:	e3a00a01 	mov	r0, #4096	; 0x1000
    8d74:	e3420020 	movt	r0, #8224	; 0x2020
    8d78:	eb0001e8 	bl	9520 <Set32>
    8d7c:	e59d3004 	ldr	r3, [sp, #4]
    8d80:	e5d33000 	ldrb	r3, [r3]
    8d84:	e3530000 	cmp	r3, #0
    8d88:	1affffeb 	bne	8d3c <uart_send_str+0x1c>
    8d8c:	e320f000 	nop	{0}
    8d90:	e3010018 	movw	r0, #4120	; 0x1018
    8d94:	e3420020 	movt	r0, #8224	; 0x2020
    8d98:	eb0001e2 	bl	9528 <Get32>
    8d9c:	e1a03000 	mov	r3, r0
    8da0:	e2033020 	and	r3, r3, #32
    8da4:	e3530000 	cmp	r3, #0
    8da8:	1afffff8 	bne	8d90 <uart_send_str+0x70>
    8dac:	ea000000 	b	8db4 <uart_send_str+0x94>
    8db0:	e320f000 	nop	{0}
    8db4:	e28dd00c 	add	sp, sp, #12
    8db8:	e49df004 	pop	{pc}		; (ldr pc, [sp], #4)

00008dbc <uart_send_int>:
    8dbc:	e52de004 	push	{lr}		; (str lr, [sp, #-4]!)
    8dc0:	e24dd034 	sub	sp, sp, #52	; 0x34
    8dc4:	e58d0004 	str	r0, [sp, #4]
    8dc8:	e3a03000 	mov	r3, #0
    8dcc:	e58d3028 	str	r3, [sp, #40]	; 0x28
    8dd0:	e3a03000 	mov	r3, #0
    8dd4:	e58d3024 	str	r3, [sp, #36]	; 0x24
    8dd8:	e59d3004 	ldr	r3, [sp, #4]
    8ddc:	e3530000 	cmp	r3, #0
    8de0:	1a000007 	bne	8e04 <uart_send_int+0x48>
    8de4:	e3a03030 	mov	r3, #48	; 0x30
    8de8:	e5cd300c 	strb	r3, [sp, #12]
    8dec:	e3a03000 	mov	r3, #0
    8df0:	e5cd300d 	strb	r3, [sp, #13]
    8df4:	e28d300c 	add	r3, sp, #12
    8df8:	e1a00003 	mov	r0, r3
    8dfc:	ebffffc7 	bl	8d20 <uart_send_str>
    8e00:	ea000060 	b	8f88 <uart_send_int+0x1cc>
    8e04:	e59d3004 	ldr	r3, [sp, #4]
    8e08:	e3530000 	cmp	r3, #0
    8e0c:	aa00000c 	bge	8e44 <uart_send_int+0x88>
    8e10:	e59d3028 	ldr	r3, [sp, #40]	; 0x28
    8e14:	e2832001 	add	r2, r3, #1
    8e18:	e58d2028 	str	r2, [sp, #40]	; 0x28
    8e1c:	e28d2030 	add	r2, sp, #48	; 0x30
    8e20:	e0823003 	add	r3, r2, r3
    8e24:	e3a0202d 	mov	r2, #45	; 0x2d
    8e28:	e5432024 	strb	r2, [r3, #-36]	; 0xffffffdc
    8e2c:	e59d3004 	ldr	r3, [sp, #4]
    8e30:	e2433001 	sub	r3, r3, #1
    8e34:	e58d3004 	str	r3, [sp, #4]
    8e38:	e59d3004 	ldr	r3, [sp, #4]
    8e3c:	e1e03003 	mvn	r3, r3
    8e40:	e58d3004 	str	r3, [sp, #4]
    8e44:	e3a03009 	mov	r3, #9
    8e48:	e58d302c 	str	r3, [sp, #44]	; 0x2c
    8e4c:	ea000047 	b	8f70 <uart_send_int+0x1b4>
    8e50:	e3a03000 	mov	r3, #0
    8e54:	e58d3020 	str	r3, [sp, #32]
    8e58:	ea000009 	b	8e84 <uart_send_int+0xc8>
    8e5c:	e30936e0 	movw	r3, #38624	; 0x96e0
    8e60:	e3403000 	movt	r3, #0
    8e64:	e59d202c 	ldr	r2, [sp, #44]	; 0x2c
    8e68:	e7933102 	ldr	r3, [r3, r2, lsl #2]
    8e6c:	e59d2004 	ldr	r2, [sp, #4]
    8e70:	e0423003 	sub	r3, r2, r3
    8e74:	e58d3004 	str	r3, [sp, #4]
    8e78:	e59d3020 	ldr	r3, [sp, #32]
    8e7c:	e2833001 	add	r3, r3, #1
    8e80:	e58d3020 	str	r3, [sp, #32]
    8e84:	e30936e0 	movw	r3, #38624	; 0x96e0
    8e88:	e3403000 	movt	r3, #0
    8e8c:	e59d202c 	ldr	r2, [sp, #44]	; 0x2c
    8e90:	e7933102 	ldr	r3, [r3, r2, lsl #2]
    8e94:	e59d2004 	ldr	r2, [sp, #4]
    8e98:	e1520003 	cmp	r2, r3
    8e9c:	aaffffee 	bge	8e5c <uart_send_int+0xa0>
    8ea0:	e59d3020 	ldr	r3, [sp, #32]
    8ea4:	e3530000 	cmp	r3, #0
    8ea8:	da000027 	ble	8f4c <uart_send_int+0x190>
    8eac:	e59d3020 	ldr	r3, [sp, #32]
    8eb0:	e6ef2073 	uxtb	r2, r3
    8eb4:	e59d3028 	ldr	r3, [sp, #40]	; 0x28
    8eb8:	e2831001 	add	r1, r3, #1
    8ebc:	e58d1028 	str	r1, [sp, #40]	; 0x28
    8ec0:	e2822030 	add	r2, r2, #48	; 0x30
    8ec4:	e6ef2072 	uxtb	r2, r2
    8ec8:	e28d1030 	add	r1, sp, #48	; 0x30
    8ecc:	e0813003 	add	r3, r1, r3
    8ed0:	e5432024 	strb	r2, [r3, #-36]	; 0xffffffdc
    8ed4:	e59d3024 	ldr	r3, [sp, #36]	; 0x24
    8ed8:	e3530000 	cmp	r3, #0
    8edc:	1a000020 	bne	8f64 <uart_send_int+0x1a8>
    8ee0:	e3a03000 	mov	r3, #0
    8ee4:	e58d301c 	str	r3, [sp, #28]
    8ee8:	ea000009 	b	8f14 <uart_send_int+0x158>
    8eec:	e59d2028 	ldr	r2, [sp, #40]	; 0x28
    8ef0:	e59d301c 	ldr	r3, [sp, #28]
    8ef4:	e0823003 	add	r3, r2, r3
    8ef8:	e28d2030 	add	r2, sp, #48	; 0x30
    8efc:	e0823003 	add	r3, r2, r3
    8f00:	e3a02030 	mov	r2, #48	; 0x30
    8f04:	e5432024 	strb	r2, [r3, #-36]	; 0xffffffdc
    8f08:	e59d301c 	ldr	r3, [sp, #28]
    8f0c:	e2833001 	add	r3, r3, #1
    8f10:	e58d301c 	str	r3, [sp, #28]
    8f14:	e59d201c 	ldr	r2, [sp, #28]
    8f18:	e59d302c 	ldr	r3, [sp, #44]	; 0x2c
    8f1c:	e1520003 	cmp	r2, r3
    8f20:	bafffff1 	blt	8eec <uart_send_int+0x130>
    8f24:	e59d2028 	ldr	r2, [sp, #40]	; 0x28
    8f28:	e59d301c 	ldr	r3, [sp, #28]
    8f2c:	e0823003 	add	r3, r2, r3
    8f30:	e28d2030 	add	r2, sp, #48	; 0x30
    8f34:	e0823003 	add	r3, r2, r3
    8f38:	e3a02000 	mov	r2, #0
    8f3c:	e5432024 	strb	r2, [r3, #-36]	; 0xffffffdc
    8f40:	e3a03001 	mov	r3, #1
    8f44:	e58d3024 	str	r3, [sp, #36]	; 0x24
    8f48:	ea000005 	b	8f64 <uart_send_int+0x1a8>
    8f4c:	e59d3024 	ldr	r3, [sp, #36]	; 0x24
    8f50:	e3530001 	cmp	r3, #1
    8f54:	1a000002 	bne	8f64 <uart_send_int+0x1a8>
    8f58:	e59d3028 	ldr	r3, [sp, #40]	; 0x28
    8f5c:	e2833001 	add	r3, r3, #1
    8f60:	e58d3028 	str	r3, [sp, #40]	; 0x28
    8f64:	e59d302c 	ldr	r3, [sp, #44]	; 0x2c
    8f68:	e2433001 	sub	r3, r3, #1
    8f6c:	e58d302c 	str	r3, [sp, #44]	; 0x2c
    8f70:	e59d302c 	ldr	r3, [sp, #44]	; 0x2c
    8f74:	e3530000 	cmp	r3, #0
    8f78:	aaffffb4 	bge	8e50 <uart_send_int+0x94>
    8f7c:	e28d300c 	add	r3, sp, #12
    8f80:	e1a00003 	mov	r0, r3
    8f84:	ebffff65 	bl	8d20 <uart_send_str>
    8f88:	e28dd034 	add	sp, sp, #52	; 0x34
    8f8c:	e49df004 	pop	{pc}		; (ldr pc, [sp], #4)

00008f90 <uart_receive_str>:
    8f90:	e52de004 	push	{lr}		; (str lr, [sp, #-4]!)
    8f94:	e24dd014 	sub	sp, sp, #20
    8f98:	e58d0004 	str	r0, [sp, #4]
    8f9c:	e58d1000 	str	r1, [sp]
    8fa0:	e59d3000 	ldr	r3, [sp]
    8fa4:	e3530000 	cmp	r3, #0
    8fa8:	1a000001 	bne	8fb4 <uart_receive_str+0x24>
    8fac:	e3a03000 	mov	r3, #0
    8fb0:	ea00002a 	b	9060 <uart_receive_str+0xd0>
    8fb4:	e3a03000 	mov	r3, #0
    8fb8:	e58d300c 	str	r3, [sp, #12]
    8fbc:	e59d3000 	ldr	r3, [sp]
    8fc0:	e2433001 	sub	r3, r3, #1
    8fc4:	e58d3000 	str	r3, [sp]
    8fc8:	e320f000 	nop	{0}
    8fcc:	e3010018 	movw	r0, #4120	; 0x1018
    8fd0:	e3420020 	movt	r0, #8224	; 0x2020
    8fd4:	eb000153 	bl	9528 <Get32>
    8fd8:	e1a03000 	mov	r3, r0
    8fdc:	e2033010 	and	r3, r3, #16
    8fe0:	e3530000 	cmp	r3, #0
    8fe4:	1afffff8 	bne	8fcc <uart_receive_str+0x3c>
    8fe8:	e3a00a01 	mov	r0, #4096	; 0x1000
    8fec:	e3420020 	movt	r0, #8224	; 0x2020
    8ff0:	eb00014c 	bl	9528 <Get32>
    8ff4:	e1a03000 	mov	r3, r0
    8ff8:	e6ef3073 	uxtb	r3, r3
    8ffc:	e58d3008 	str	r3, [sp, #8]
    9000:	e59d3008 	ldr	r3, [sp, #8]
    9004:	e3530000 	cmp	r3, #0
    9008:	0a00000f 	beq	904c <uart_receive_str+0xbc>
    900c:	e59d3004 	ldr	r3, [sp, #4]
    9010:	e2832001 	add	r2, r3, #1
    9014:	e58d2004 	str	r2, [sp, #4]
    9018:	e59d2008 	ldr	r2, [sp, #8]
    901c:	e6ef2072 	uxtb	r2, r2
    9020:	e5c32000 	strb	r2, [r3]
    9024:	e59d300c 	ldr	r3, [sp, #12]
    9028:	e2833001 	add	r3, r3, #1
    902c:	e58d300c 	str	r3, [sp, #12]
    9030:	e59d3000 	ldr	r3, [sp]
    9034:	e2433001 	sub	r3, r3, #1
    9038:	e58d3000 	str	r3, [sp]
    903c:	e59d3000 	ldr	r3, [sp]
    9040:	e3530000 	cmp	r3, #0
    9044:	1affffdf 	bne	8fc8 <uart_receive_str+0x38>
    9048:	ea000000 	b	9050 <uart_receive_str+0xc0>
    904c:	e320f000 	nop	{0}
    9050:	e59d3004 	ldr	r3, [sp, #4]
    9054:	e3a02000 	mov	r2, #0
    9058:	e5c32000 	strb	r2, [r3]
    905c:	e59d300c 	ldr	r3, [sp, #12]
    9060:	e1a00003 	mov	r0, r3
    9064:	e28dd014 	add	sp, sp, #20
    9068:	e49df004 	pop	{pc}		; (ldr pc, [sp], #4)

0000906c <uart_receive_int>:
    906c:	e52de004 	push	{lr}		; (str lr, [sp, #-4]!)
    9070:	e24dd02c 	sub	sp, sp, #44	; 0x2c
    9074:	e28d3004 	add	r3, sp, #4
    9078:	e58d3024 	str	r3, [sp, #36]	; 0x24
    907c:	e3093668 	movw	r3, #38504	; 0x9668
    9080:	e3403000 	movt	r3, #0
    9084:	e3a02000 	mov	r2, #0
    9088:	e5832000 	str	r2, [r3]
    908c:	e28d3004 	add	r3, sp, #4
    9090:	e3a01010 	mov	r1, #16
    9094:	e1a00003 	mov	r0, r3
    9098:	ebffffbc 	bl	8f90 <uart_receive_str>
    909c:	e58d001c 	str	r0, [sp, #28]
    90a0:	e59d3024 	ldr	r3, [sp, #36]	; 0x24
    90a4:	e5d33000 	ldrb	r3, [r3]
    90a8:	e353002d 	cmp	r3, #45	; 0x2d
    90ac:	1a000008 	bne	90d4 <uart_receive_int+0x68>
    90b0:	e3a03001 	mov	r3, #1
    90b4:	e58d3020 	str	r3, [sp, #32]
    90b8:	e59d3024 	ldr	r3, [sp, #36]	; 0x24
    90bc:	e2833001 	add	r3, r3, #1
    90c0:	e58d3024 	str	r3, [sp, #36]	; 0x24
    90c4:	e59d301c 	ldr	r3, [sp, #28]
    90c8:	e2433001 	sub	r3, r3, #1
    90cc:	e58d301c 	str	r3, [sp, #28]
    90d0:	ea000008 	b	90f8 <uart_receive_int+0x8c>
    90d4:	e3a03000 	mov	r3, #0
    90d8:	e58d3020 	str	r3, [sp, #32]
    90dc:	ea000005 	b	90f8 <uart_receive_int+0x8c>
    90e0:	e59d3024 	ldr	r3, [sp, #36]	; 0x24
    90e4:	e2833001 	add	r3, r3, #1
    90e8:	e58d3024 	str	r3, [sp, #36]	; 0x24
    90ec:	e59d301c 	ldr	r3, [sp, #28]
    90f0:	e2433001 	sub	r3, r3, #1
    90f4:	e58d301c 	str	r3, [sp, #28]
    90f8:	e59d301c 	ldr	r3, [sp, #28]
    90fc:	e3530000 	cmp	r3, #0
    9100:	da000003 	ble	9114 <uart_receive_int+0xa8>
    9104:	e59d3024 	ldr	r3, [sp, #36]	; 0x24
    9108:	e5d33000 	ldrb	r3, [r3]
    910c:	e3530030 	cmp	r3, #48	; 0x30
    9110:	0afffff2 	beq	90e0 <uart_receive_int+0x74>
    9114:	e59d301c 	ldr	r3, [sp, #28]
    9118:	e3530000 	cmp	r3, #0
    911c:	ca000001 	bgt	9128 <uart_receive_int+0xbc>
    9120:	e3a03000 	mov	r3, #0
    9124:	ea000039 	b	9210 <uart_receive_int+0x1a4>
    9128:	e59d301c 	ldr	r3, [sp, #28]
    912c:	e353000a 	cmp	r3, #10
    9130:	da000005 	ble	914c <uart_receive_int+0xe0>
    9134:	e3093668 	movw	r3, #38504	; 0x9668
    9138:	e3403000 	movt	r3, #0
    913c:	e3e02000 	mvn	r2, #0
    9140:	e5832000 	str	r2, [r3]
    9144:	e3a03000 	mov	r3, #0
    9148:	ea000030 	b	9210 <uart_receive_int+0x1a4>
    914c:	e3a03000 	mov	r3, #0
    9150:	e58d3018 	str	r3, [sp, #24]
    9154:	e59d3024 	ldr	r3, [sp, #36]	; 0x24
    9158:	e2832001 	add	r2, r3, #1
    915c:	e58d2024 	str	r2, [sp, #36]	; 0x24
    9160:	e5d33000 	ldrb	r3, [r3]
    9164:	e58d3014 	str	r3, [sp, #20]
    9168:	e59d3014 	ldr	r3, [sp, #20]
    916c:	e353002f 	cmp	r3, #47	; 0x2f
    9170:	da000002 	ble	9180 <uart_receive_int+0x114>
    9174:	e59d3014 	ldr	r3, [sp, #20]
    9178:	e3530039 	cmp	r3, #57	; 0x39
    917c:	da000005 	ble	9198 <uart_receive_int+0x12c>
    9180:	e3093668 	movw	r3, #38504	; 0x9668
    9184:	e3403000 	movt	r3, #0
    9188:	e3e02000 	mvn	r2, #0
    918c:	e5832000 	str	r2, [r3]
    9190:	e3a03000 	mov	r3, #0
    9194:	ea00001d 	b	9210 <uart_receive_int+0x1a4>
    9198:	e59d3014 	ldr	r3, [sp, #20]
    919c:	e3530030 	cmp	r3, #48	; 0x30
    91a0:	1a000003 	bne	91b4 <uart_receive_int+0x148>
    91a4:	e59d301c 	ldr	r3, [sp, #28]
    91a8:	e2433001 	sub	r3, r3, #1
    91ac:	e58d301c 	str	r3, [sp, #28]
    91b0:	ea00000c 	b	91e8 <uart_receive_int+0x17c>
    91b4:	e59d3014 	ldr	r3, [sp, #20]
    91b8:	e2432030 	sub	r2, r3, #48	; 0x30
    91bc:	e59d301c 	ldr	r3, [sp, #28]
    91c0:	e2433001 	sub	r3, r3, #1
    91c4:	e58d301c 	str	r3, [sp, #28]
    91c8:	e30936e0 	movw	r3, #38624	; 0x96e0
    91cc:	e3403000 	movt	r3, #0
    91d0:	e59d101c 	ldr	r1, [sp, #28]
    91d4:	e7933101 	ldr	r3, [r3, r1, lsl #2]
    91d8:	e0030293 	mul	r3, r3, r2
    91dc:	e59d2018 	ldr	r2, [sp, #24]
    91e0:	e0823003 	add	r3, r2, r3
    91e4:	e58d3018 	str	r3, [sp, #24]
    91e8:	e59d301c 	ldr	r3, [sp, #28]
    91ec:	e3530000 	cmp	r3, #0
    91f0:	caffffd7 	bgt	9154 <uart_receive_int+0xe8>
    91f4:	e59d3020 	ldr	r3, [sp, #32]
    91f8:	e3530001 	cmp	r3, #1
    91fc:	1a000002 	bne	920c <uart_receive_int+0x1a0>
    9200:	e59d3018 	ldr	r3, [sp, #24]
    9204:	e2633000 	rsb	r3, r3, #0
    9208:	e58d3018 	str	r3, [sp, #24]
    920c:	e59d3018 	ldr	r3, [sp, #24]
    9210:	e1a00003 	mov	r0, r3
    9214:	e28dd02c 	add	sp, sp, #44	; 0x2c
    9218:	e49df004 	pop	{pc}		; (ldr pc, [sp], #4)

0000921c <uart_is_receive_fifo_empty>:
    921c:	e92d4010 	push	{r4, lr}
    9220:	e3010018 	movw	r0, #4120	; 0x1018
    9224:	e3420020 	movt	r0, #8224	; 0x2020
    9228:	eb0000be 	bl	9528 <Get32>
    922c:	e1a03000 	mov	r3, r0
    9230:	e2033010 	and	r3, r3, #16
    9234:	e3530000 	cmp	r3, #0
    9238:	0a000001 	beq	9244 <uart_is_receive_fifo_empty+0x28>
    923c:	e3a03000 	mov	r3, #0
    9240:	ea000000 	b	9248 <uart_is_receive_fifo_empty+0x2c>
    9244:	e3a03001 	mov	r3, #1
    9248:	e1a00003 	mov	r0, r3
    924c:	e8bd8010 	pop	{r4, pc}

00009250 <sched_init>:
    9250:	e92d4010 	push	{r4, lr}
    9254:	e30936ac 	movw	r3, #38572	; 0x96ac
    9258:	e3403000 	movt	r3, #0
    925c:	e309266c 	movw	r2, #38508	; 0x966c
    9260:	e3402000 	movt	r2, #0
    9264:	e5832000 	str	r2, [r3]
    9268:	ebfffc72 	bl	8438 <kheap_init>
    926c:	e320f000 	nop	{0}
    9270:	e8bd8010 	pop	{r4, pc}

00009274 <create_process>:
    9274:	e52de004 	push	{lr}		; (str lr, [sp, #-4]!)
    9278:	e24dd014 	sub	sp, sp, #20
    927c:	e58d0004 	str	r0, [sp, #4]
    9280:	e3a00040 	mov	r0, #64	; 0x40
    9284:	ebfffc18 	bl	82ec <kAlloc>
    9288:	e58d000c 	str	r0, [sp, #12]
    928c:	e3020710 	movw	r0, #10000	; 0x2710
    9290:	ebfffc15 	bl	82ec <kAlloc>
    9294:	e1a03000 	mov	r3, r0
    9298:	e2833c27 	add	r3, r3, #9984	; 0x2700
    929c:	e283300f 	add	r3, r3, #15
    92a0:	e59d200c 	ldr	r2, [sp, #12]
    92a4:	e5823034 	str	r3, [r2, #52]	; 0x34
    92a8:	e59d300c 	ldr	r3, [sp, #12]
    92ac:	e59d2004 	ldr	r2, [sp, #4]
    92b0:	e5832038 	str	r2, [r3, #56]	; 0x38
    92b4:	e10f0000 	mrs	r0, CPSR
    92b8:	e1a02000 	mov	r2, r0
    92bc:	e59d300c 	ldr	r3, [sp, #12]
    92c0:	e583203c 	str	r2, [r3, #60]	; 0x3c
    92c4:	e59d300c 	ldr	r3, [sp, #12]
    92c8:	e1a00003 	mov	r0, r3
    92cc:	e28dd014 	add	sp, sp, #20
    92d0:	e49df004 	pop	{pc}		; (ldr pc, [sp], #4)

000092d4 <pause>:
    92d4:	e24dd010 	sub	sp, sp, #16
    92d8:	e58d0004 	str	r0, [sp, #4]
    92dc:	ea000011 	b	9328 <pause+0x54>
    92e0:	e3013388 	movw	r3, #5000	; 0x1388
    92e4:	e58d300c 	str	r3, [sp, #12]
    92e8:	ea000005 	b	9304 <pause+0x30>
    92ec:	e59d300c 	ldr	r3, [sp, #12]
    92f0:	e2833001 	add	r3, r3, #1
    92f4:	e58d300c 	str	r3, [sp, #12]
    92f8:	e59d300c 	ldr	r3, [sp, #12]
    92fc:	e2433001 	sub	r3, r3, #1
    9300:	e58d300c 	str	r3, [sp, #12]
    9304:	e59d300c 	ldr	r3, [sp, #12]
    9308:	e3530000 	cmp	r3, #0
    930c:	cafffff6 	bgt	92ec <pause+0x18>
    9310:	e59d300c 	ldr	r3, [sp, #12]
    9314:	e2433001 	sub	r3, r3, #1
    9318:	e58d300c 	str	r3, [sp, #12]
    931c:	e59d3004 	ldr	r3, [sp, #4]
    9320:	e2433001 	sub	r3, r3, #1
    9324:	e58d3004 	str	r3, [sp, #4]
    9328:	e59d3004 	ldr	r3, [sp, #4]
    932c:	e3530000 	cmp	r3, #0
    9330:	caffffea 	bgt	92e0 <pause+0xc>
    9334:	e320f000 	nop	{0}
    9338:	e28dd010 	add	sp, sp, #16
    933c:	e12fff1e 	bx	lr

00009340 <audio_init>:
    9340:	e52de004 	push	{lr}		; (str lr, [sp, #-4]!)
    9344:	e24dd00c 	sub	sp, sp, #12
    9348:	e3a03b01 	mov	r3, #1024	; 0x400
    934c:	e58d3004 	str	r3, [sp, #4]
    9350:	e3a03002 	mov	r3, #2
    9354:	e58d3000 	str	r3, [sp]
    9358:	e3093750 	movw	r3, #38736	; 0x9750
    935c:	e3403000 	movt	r3, #0
    9360:	e5933000 	ldr	r3, [r3]
    9364:	e2833010 	add	r3, r3, #16
    9368:	e5932000 	ldr	r2, [r3]
    936c:	e3093750 	movw	r3, #38736	; 0x9750
    9370:	e3403000 	movt	r3, #0
    9374:	e5933000 	ldr	r3, [r3]
    9378:	e2833010 	add	r3, r3, #16
    937c:	e3822004 	orr	r2, r2, #4
    9380:	e5832000 	str	r2, [r3]
    9384:	e3093750 	movw	r3, #38736	; 0x9750
    9388:	e3403000 	movt	r3, #0
    938c:	e5933000 	ldr	r3, [r3]
    9390:	e2833010 	add	r3, r3, #16
    9394:	e5932000 	ldr	r2, [r3]
    9398:	e3093750 	movw	r3, #38736	; 0x9750
    939c:	e3403000 	movt	r3, #0
    93a0:	e5933000 	ldr	r3, [r3]
    93a4:	e2833010 	add	r3, r3, #16
    93a8:	e3822802 	orr	r2, r2, #131072	; 0x20000
    93ac:	e5832000 	str	r2, [r3]
    93b0:	e3a00002 	mov	r0, #2
    93b4:	ebffffc6 	bl	92d4 <pause>
    93b8:	e3093754 	movw	r3, #38740	; 0x9754
    93bc:	e3403000 	movt	r3, #0
    93c0:	e5933000 	ldr	r3, [r3]
    93c4:	e28320a0 	add	r2, r3, #160	; 0xa0
    93c8:	e3a03020 	mov	r3, #32
    93cc:	e3453a00 	movt	r3, #23040	; 0x5a00
    93d0:	e5823000 	str	r3, [r2]
    93d4:	e59d3000 	ldr	r3, [sp]
    93d8:	e1a02603 	lsl	r2, r3, #12
    93dc:	e3093754 	movw	r3, #38740	; 0x9754
    93e0:	e3403000 	movt	r3, #0
    93e4:	e5933000 	ldr	r3, [r3]
    93e8:	e28330a4 	add	r3, r3, #164	; 0xa4
    93ec:	e382245a 	orr	r2, r2, #1509949440	; 0x5a000000
    93f0:	e5832000 	str	r2, [r3]
    93f4:	e3093754 	movw	r3, #38740	; 0x9754
    93f8:	e3403000 	movt	r3, #0
    93fc:	e5933000 	ldr	r3, [r3]
    9400:	e28320a0 	add	r2, r3, #160	; 0xa0
    9404:	e3a03011 	mov	r3, #17
    9408:	e3453a00 	movt	r3, #23040	; 0x5a00
    940c:	e5823000 	str	r3, [r2]
    9410:	e3a00002 	mov	r0, #2
    9414:	ebffffae 	bl	92d4 <pause>
    9418:	e3093758 	movw	r3, #38744	; 0x9758
    941c:	e3403000 	movt	r3, #0
    9420:	e5933000 	ldr	r3, [r3]
    9424:	e3a02000 	mov	r2, #0
    9428:	e5832000 	str	r2, [r3]
    942c:	e3a00002 	mov	r0, #2
    9430:	ebffffa7 	bl	92d4 <pause>
    9434:	e3093758 	movw	r3, #38744	; 0x9758
    9438:	e3403000 	movt	r3, #0
    943c:	e5933000 	ldr	r3, [r3]
    9440:	e2833010 	add	r3, r3, #16
    9444:	e59d2004 	ldr	r2, [sp, #4]
    9448:	e5832000 	str	r2, [r3]
    944c:	e3093758 	movw	r3, #38744	; 0x9758
    9450:	e3403000 	movt	r3, #0
    9454:	e5933000 	ldr	r3, [r3]
    9458:	e2833020 	add	r3, r3, #32
    945c:	e59d2004 	ldr	r2, [sp, #4]
    9460:	e5832000 	str	r2, [r3]
    9464:	e3093758 	movw	r3, #38744	; 0x9758
    9468:	e3403000 	movt	r3, #0
    946c:	e5933000 	ldr	r3, [r3]
    9470:	e3022161 	movw	r2, #8545	; 0x2161
    9474:	e5832000 	str	r2, [r3]
    9478:	e3a00002 	mov	r0, #2
    947c:	ebffff94 	bl	92d4 <pause>
    9480:	e320f000 	nop	{0}
    9484:	e28dd00c 	add	sp, sp, #12
    9488:	e49df004 	pop	{pc}		; (ldr pc, [sp], #4)

0000948c <audio_test>:
    948c:	e52de004 	push	{lr}		; (str lr, [sp, #-4]!)
    9490:	e24dd00c 	sub	sp, sp, #12
    9494:	e3a03000 	mov	r3, #0
    9498:	e58d3004 	str	r3, [sp, #4]
    949c:	ebffffa7 	bl	9340 <audio_init>
    94a0:	ea000016 	b	9500 <audio_test+0x74>
    94a4:	e3093758 	movw	r3, #38744	; 0x9758
    94a8:	e3403000 	movt	r3, #0
    94ac:	e5933000 	ldr	r3, [r3]
    94b0:	e2833004 	add	r3, r3, #4
    94b4:	e5933000 	ldr	r3, [r3]
    94b8:	e58d3000 	str	r3, [sp]
    94bc:	e59d3000 	ldr	r3, [sp]
    94c0:	e2033001 	and	r3, r3, #1
    94c4:	e3530000 	cmp	r3, #0
    94c8:	1a000002 	bne	94d8 <audio_test+0x4c>
    94cc:	e59d3004 	ldr	r3, [sp, #4]
    94d0:	e2833001 	add	r3, r3, #1
    94d4:	e58d3004 	str	r3, [sp, #4]
    94d8:	e59d3000 	ldr	r3, [sp]
    94dc:	e203303c 	and	r3, r3, #60	; 0x3c
    94e0:	e3530000 	cmp	r3, #0
    94e4:	0a000005 	beq	9500 <audio_test+0x74>
    94e8:	e3093758 	movw	r3, #38744	; 0x9758
    94ec:	e3403000 	movt	r3, #0
    94f0:	e5933000 	ldr	r3, [r3]
    94f4:	e2833004 	add	r3, r3, #4
    94f8:	e3a0203c 	mov	r2, #60	; 0x3c
    94fc:	e5832000 	str	r2, [r3]
    9500:	e59d2004 	ldr	r2, [sp, #4]
    9504:	e308369f 	movw	r3, #34463	; 0x869f
    9508:	e3403001 	movt	r3, #1
    950c:	e1520003 	cmp	r2, r3
    9510:	daffffe3 	ble	94a4 <audio_test+0x18>
    9514:	e320f000 	nop	{0}
    9518:	e28dd00c 	add	sp, sp, #12
    951c:	e49df004 	pop	{pc}		; (ldr pc, [sp], #4)

00009520 <Set32>:
    9520:	e5801000 	str	r1, [r0]
    9524:	e1a0f00e 	mov	pc, lr

00009528 <Get32>:
    9528:	e5900000 	ldr	r0, [r0]
    952c:	e1a0f00e 	mov	pc, lr

00009530 <delay>:
    9530:	e1a00100 	lsl	r0, r0, #2
    9534:	e2800001 	add	r0, r0, #1

00009538 <delay_loop>:
    9538:	e2500001 	subs	r0, r0, #1
    953c:	1afffffd 	bne	9538 <delay_loop>
    9540:	e1a0f00e 	mov	pc, lr

00009544 <memory_barrier>:
    9544:	ee07cf15 	mcr	15, 0, ip, cr7, cr5, {0}
    9548:	ee07cfd5 	mcr	15, 0, ip, cr7, cr5, {6}
    954c:	ee07cf9a 	mcr	15, 0, ip, cr7, cr10, {4}
    9550:	ee07cf95 	mcr	15, 0, ip, cr7, cr5, {4}
    9554:	eff00000 	svc	0x00f00000	; IMB
    9558:	e1a0f00e 	mov	pc, lr

0000955c <invalidate_cache>:
    955c:	ee010f10 	mcr	15, 0, r0, cr1, cr0, {0}
    9560:	ee070f17 	mcr	15, 0, r0, cr7, cr7, {0}
    9564:	e1a0f00e 	mov	pc, lr

00009568 <kernel_panic>:
    9568:	e24dd008 	sub	sp, sp, #8
    956c:	e58d0004 	str	r0, [sp, #4]
    9570:	e58d1000 	str	r1, [sp]
    9574:	eafffffe 	b	9574 <kernel_panic+0xc>

00009578 <user_process_1>:
    9578:	e52de004 	push	{lr}		; (str lr, [sp, #-4]!)
    957c:	e24dd00c 	sub	sp, sp, #12
    9580:	e3a03005 	mov	r3, #5
    9584:	e58d3004 	str	r3, [sp, #4]
    9588:	e59d3004 	ldr	r3, [sp, #4]
    958c:	e2833001 	add	r3, r3, #1
    9590:	e58d3004 	str	r3, [sp, #4]
    9594:	e30936b0 	movw	r3, #38576	; 0x96b0
    9598:	e3403000 	movt	r3, #0
    959c:	e5933000 	ldr	r3, [r3]
    95a0:	e1a00003 	mov	r0, r3
    95a4:	ebfffc14 	bl	85fc <sys_yieldto>
    95a8:	eafffff6 	b	9588 <user_process_1+0x10>

000095ac <user_process_2>:
    95ac:	e52de004 	push	{lr}		; (str lr, [sp, #-4]!)
    95b0:	e24dd00c 	sub	sp, sp, #12
    95b4:	e3e0300b 	mvn	r3, #11
    95b8:	e58d3004 	str	r3, [sp, #4]
    95bc:	e59d3004 	ldr	r3, [sp, #4]
    95c0:	e2433002 	sub	r3, r3, #2
    95c4:	e58d3004 	str	r3, [sp, #4]
    95c8:	e30936b4 	movw	r3, #38580	; 0x96b4
    95cc:	e3403000 	movt	r3, #0
    95d0:	e5933000 	ldr	r3, [r3]
    95d4:	e1a00003 	mov	r0, r3
    95d8:	ebfffc07 	bl	85fc <sys_yieldto>
    95dc:	eafffff6 	b	95bc <user_process_2+0x10>

000095e0 <kmain>:
    95e0:	e92d4010 	push	{r4, lr}
    95e4:	ebffff19 	bl	9250 <sched_init>
    95e8:	e3090578 	movw	r0, #38264	; 0x9578
    95ec:	e3400000 	movt	r0, #0
    95f0:	ebffff1f 	bl	9274 <create_process>
    95f4:	e1a02000 	mov	r2, r0
    95f8:	e30936b4 	movw	r3, #38580	; 0x96b4
    95fc:	e3403000 	movt	r3, #0
    9600:	e5832000 	str	r2, [r3]
    9604:	e30905ac 	movw	r0, #38316	; 0x95ac
    9608:	e3400000 	movt	r0, #0
    960c:	ebffff18 	bl	9274 <create_process>
    9610:	e1a02000 	mov	r2, r0
    9614:	e30936b0 	movw	r3, #38576	; 0x96b0
    9618:	e3403000 	movt	r3, #0
    961c:	e5832000 	str	r2, [r3]
    9620:	f1020010 	cps	#16
    9624:	e30936b4 	movw	r3, #38580	; 0x96b4
    9628:	e3403000 	movt	r3, #0
    962c:	e5933000 	ldr	r3, [r3]
    9630:	e1a00003 	mov	r0, r3
    9634:	ebfffbf0 	bl	85fc <sys_yieldto>
    9638:	e3a01028 	mov	r1, #40	; 0x28
    963c:	e3090708 	movw	r0, #38664	; 0x9708
    9640:	e3400000 	movt	r0, #0
    9644:	ebffffc7 	bl	9568 <kernel_panic>
    9648:	e320f000 	nop	{0}
    964c:	e8bd8010 	pop	{r4, pc}

Disassembly of section .bss:

00009650 <freelist>:
    9650:	00000000                                ....

00009654 <cntfrq>:
    9654:	00000000 	.word	0x00000000

00009658 <led_state>:
    9658:	00000000 	.word	0x00000000

0000965c <kernel_heap_limit>:
    965c:	00000000                                ....

00009660 <kernel_heap_top>:
    9660:	00000000                                ....

00009664 <sp_svc>:
    9664:	00000000                                ....

00009668 <uart_error>:
    9668:	00000000                                ....

0000966c <kmain_process>:
	...

000096ac <current_process>:
    96ac:	00000000                                ....

000096b0 <p2>:
    96b0:	00000000                                ....

000096b4 <p1>:
    96b4:	00000000                                ....

Disassembly of section .stack:

0000975c <__stack_start__>:
	...

0000995c <__svc_stack_end__>:
	...

00009b5c <__sys_stack_end__>:
	...
